target datalayout = "e-m:e-p270:32:32-p271:32:32-p272:64:64-i64:64-i128:128-f80:128-n8:16:32:64-S128"
target triple = "x86_64-unknown-linux-gnu"

; Function Attrs: mustprogress uwtable
define noundef double @_ZNK8QuantLib14ZeroCouponSwap14floatingLegNPVEv(ptr noundef nonnull align 8 dereferenceable(312) %this) #2 align 2 {
entry:
  %this.addr = alloca ptr, align 8
  store ptr %this, ptr %this.addr, align 8, !tbaa !3
  %this1 = load ptr, ptr %this.addr, align 8
  %call = call noundef double @_ZNK8QuantLib4Swap6legNPVEm(ptr noundef nonnull align 8 dereferenceable(256) %this1, i64 noundef 1)
  ret double %call
}

; Function Attrs: mustprogress uwtable
define noundef double @_ZNK8QuantLib14ZeroCouponSwap16fairFixedPaymentEv(ptr noundef nonnull align 8 dereferenceable(312) %this) #2 align 2 {
entry:
  %this.addr = alloca ptr, align 8
  %scaling = alloca double, align 8
  store ptr %this, ptr %this.addr, align 8, !tbaa !3
  %this1 = load ptr, ptr %this.addr, align 8
  call void @llvm.lifetime.start.p0(i64 8, ptr %scaling) #16
  %call = call noundef zeroext i1 @_ZNK8QuantLib4Swap5payerEm(ptr noundef nonnull align 8 dereferenceable(256) %this1, i64 noundef 1)
  %cond = select i1 %call, double -1.000000e+00, double 1.000000e+00
  store double %cond, ptr %scaling, align 8, !tbaa !26
  %call2 = call noundef double @_ZNK8QuantLib14ZeroCouponSwap14floatingLegNPVEv(ptr noundef nonnull align 8 dereferenceable(312) %this1)
  %call3 = call noundef double @_ZNK8QuantLib4Swap12endDiscountsEm(ptr noundef nonnull align 8 dereferenceable(256) %this1, i64 noundef 0)
  %0 = load double, ptr %scaling, align 8, !tbaa !26
  %mul = fmul double %call3, %0
  %div = fdiv double %call2, %mul
  call void @llvm.lifetime.end.p0(i64 8, ptr %scaling) #16
  ret double %div
}