; Function Attrs: mustprogress uwtable
define noundef double @_ZNK8QuantLib14ZeroCouponSwap16fairFixedPaymentEv(ptr noundef nonnull align 8 dereferenceable(312) %this) local_unnamed_addr #9 align 2 {
entry:
  %call = tail call noundef zeroext i1 @_ZNK8QuantLib4Swap5payerEm(ptr noundef nonnull align 8 dereferenceable(256) %this, i64 noundef 1)
  %call.i = tail call noundef double @_ZNK8QuantLib4Swap6legNPVEm(ptr noundef nonnull align 8 dereferenceable(256) %this, i64 noundef 1)
  %call3 = tail call noundef double @_ZNK8QuantLib4Swap12endDiscountsEm(ptr noundef nonnull align 8 dereferenceable(256) %this, i64 noundef 0)
  %0 = fneg double %call3
  %mul = select i1 %call, double %0, double %call3
  %div = fdiv double %call.i, %mul
  ret double %div
}